target datalayout = "e-m:e-p270:32:32-p271:32:32-p272:64:64-i64:64-i128:128-f80:128-n8:16:32:64-S128"
target triple = "x86_64-pc-linux-gnu"

%struct.mbedtls_poly1305_context = type { [4 x i32], [4 x i32], [5 x i32], [16 x i8], i64 }

; Function Attrs: inlinehint nounwind uwtable
define internal i64 @mul64(i32 noundef %0, i32 noundef %1) #7 {
  %3 = alloca i32, align 4
  %4 = alloca i32, align 4
  store i32 %0, ptr %3, align 4, !tbaa !10
  store i32 %1, ptr %4, align 4, !tbaa !10
  %5 = load i32, ptr %3, align 4, !tbaa !10
  %6 = zext i32 %5 to i64
  %7 = load i32, ptr %4, align 4, !tbaa !10
  %8 = zext i32 %7 to i64
  %9 = mul i64 %6, %8
  ret i64 %9
}

; Function Attrs: alwaysinline nounwind uwtable
define internal i32 @mbedtls_get_unaligned_uint32(ptr noundef %0) #2 {
  %2 = alloca ptr, align 8
  %3 = alloca i32, align 4
  store ptr %0, ptr %2, align 8, !tbaa !15
  call void @llvm.lifetime.start.p0(i64 4, ptr %3) #8
  %4 = load ptr, ptr %2, align 8, !tbaa !15
  call void @llvm.memcpy.p0.p0.i64(ptr align 4 %3, ptr align 1 %4, i64 4, i1 false)
  %5 = load i32, ptr %3, align 4, !tbaa !10
  call void @llvm.lifetime.end.p0(i64 4, ptr %3) #8
  ret i32 %5
}

; Function Attrs: nounwind uwtable
define internal void @poly1305_process(ptr noundef %0, i64 noundef %1, ptr noundef %2, i32 noundef %3) #0 {
  %5 = alloca ptr, align 8
  %6 = alloca i64, align 8
  %7 = alloca ptr, align 8
  %8 = alloca i32, align 4
  %9 = alloca i64, align 8
  %10 = alloca i64, align 8
  %11 = alloca i64, align 8
  %12 = alloca i64, align 8
  %13 = alloca i32, align 4
  %14 = alloca i32, align 4
  %15 = alloca i32, align 4
  %16 = alloca i32, align 4
  %17 = alloca i32, align 4
  %18 = alloca i32, align 4
  %19 = alloca i32, align 4
  %20 = alloca i32, align 4
  %21 = alloca i32, align 4
  %22 = alloca i32, align 4
  %23 = alloca i32, align 4
  %24 = alloca i32, align 4
  %25 = alloca i64, align 8
  %26 = alloca i64, align 8
  store ptr %0, ptr %5, align 8, !tbaa !3
  store i64 %1, ptr %6, align 8, !tbaa !16
  store ptr %2, ptr %7, align 8, !tbaa !8
  store i32 %3, ptr %8, align 4, !tbaa !10
  call void @llvm.lifetime.start.p0(i64 8, ptr %9) #8
  call void @llvm.lifetime.start.p0(i64 8, ptr %10) #8
  call void @llvm.lifetime.start.p0(i64 8, ptr %11) #8
  call void @llvm.lifetime.start.p0(i64 8, ptr %12) #8
  call void @llvm.lifetime.start.p0(i64 4, ptr %13) #8
  call void @llvm.lifetime.start.p0(i64 4, ptr %14) #8
  call void @llvm.lifetime.start.p0(i64 4, ptr %15) #8
  call void @llvm.lifetime.start.p0(i64 4, ptr %16) #8
  call void @llvm.lifetime.start.p0(i64 4, ptr %17) #8
  call void @llvm.lifetime.start.p0(i64 4, ptr %18) #8
  call void @llvm.lifetime.start.p0(i64 4, ptr %19) #8
  call void @llvm.lifetime.start.p0(i64 4, ptr %20) #8
  call void @llvm.lifetime.start.p0(i64 4, ptr %21) #8
  call void @llvm.lifetime.start.p0(i64 4, ptr %22) #8
  call void @llvm.lifetime.start.p0(i64 4, ptr %23) #8
  call void @llvm.lifetime.start.p0(i64 4, ptr %24) #8
  call void @llvm.lifetime.start.p0(i64 8, ptr %25) #8
  store i64 0, ptr %25, align 8, !tbaa !16
  call void @llvm.lifetime.start.p0(i64 8, ptr %26) #8
  %27 = load ptr, ptr %5, align 8, !tbaa !3
  %28 = getelementptr inbounds nuw %struct.mbedtls_poly1305_context, ptr %27, i32 0, i32 0
  %29 = getelementptr inbounds [4 x i32], ptr %28, i64 0, i64 0
  %30 = load i32, ptr %29, align 8, !tbaa !10
  store i32 %30, ptr %18, align 4, !tbaa !10
  %31 = load ptr, ptr %5, align 8, !tbaa !3
  %32 = getelementptr inbounds nuw %struct.mbedtls_poly1305_context, ptr %31, i32 0, i32 0
  %33 = getelementptr inbounds [4 x i32], ptr %32, i64 0, i64 1
  %34 = load i32, ptr %33, align 4, !tbaa !10
  store i32 %34, ptr %19, align 4, !tbaa !10
  %35 = load ptr, ptr %5, align 8, !tbaa !3
  %36 = getelementptr inbounds nuw %struct.mbedtls_poly1305_context, ptr %35, i32 0, i32 0
  %37 = getelementptr inbounds [4 x i32], ptr %36, i64 0, i64 2
  %38 = load i32, ptr %37, align 8, !tbaa !10
  store i32 %38, ptr %20, align 4, !tbaa !10
  %39 = load ptr, ptr %5, align 8, !tbaa !3
  %40 = getelementptr inbounds nuw %struct.mbedtls_poly1305_context, ptr %39, i32 0, i32 0
  %41 = getelementptr inbounds [4 x i32], ptr %40, i64 0, i64 3
  %42 = load i32, ptr %41, align 4, !tbaa !10
  store i32 %42, ptr %21, align 4, !tbaa !10
  %43 = load i32, ptr %19, align 4, !tbaa !10
  %44 = load i32, ptr %19, align 4, !tbaa !10
  %45 = lshr i32 %44, 2
  %46 = add i32 %43, %45
  store i32 %46, ptr %22, align 4, !tbaa !10
  %47 = load i32, ptr %20, align 4, !tbaa !10
  %48 = load i32, ptr %20, align 4, !tbaa !10
  %49 = lshr i32 %48, 2
  %50 = add i32 %47, %49
  store i32 %50, ptr %23, align 4, !tbaa !10
  %51 = load i32, ptr %21, align 4, !tbaa !10
  %52 = load i32, ptr %21, align 4, !tbaa !10
  %53 = lshr i32 %52, 2
  %54 = add i32 %51, %53
  store i32 %54, ptr %24, align 4, !tbaa !10
  %55 = load ptr, ptr %5, align 8, !tbaa !3
  %56 = getelementptr inbounds nuw %struct.mbedtls_poly1305_context, ptr %55, i32 0, i32 2
  %57 = getelementptr inbounds [5 x i32], ptr %56, i64 0, i64 0
  %58 = load i32, ptr %57, align 8, !tbaa !10
  store i32 %58, ptr %13, align 4, !tbaa !10
  %59 = load ptr, ptr %5, align 8, !tbaa !3
  %60 = getelementptr inbounds nuw %struct.mbedtls_poly1305_context, ptr %59, i32 0, i32 2
  %61 = getelementptr inbounds [5 x i32], ptr %60, i64 0, i64 1
  %62 = load i32, ptr %61, align 4, !tbaa !10
  store i32 %62, ptr %14, align 4, !tbaa !10
  %63 = load ptr, ptr %5, align 8, !tbaa !3
  %64 = getelementptr inbounds nuw %struct.mbedtls_poly1305_context, ptr %63, i32 0, i32 2
  %65 = getelementptr inbounds [5 x i32], ptr %64, i64 0, i64 2
  %66 = load i32, ptr %65, align 8, !tbaa !10
  store i32 %66, ptr %15, align 4, !tbaa !10
  %67 = load ptr, ptr %5, align 8, !tbaa !3
  %68 = getelementptr inbounds nuw %struct.mbedtls_poly1305_context, ptr %67, i32 0, i32 2
  %69 = getelementptr inbounds [5 x i32], ptr %68, i64 0, i64 3
  %70 = load i32, ptr %69, align 4, !tbaa !10
  store i32 %70, ptr %16, align 4, !tbaa !10
  %71 = load ptr, ptr %5, align 8, !tbaa !3
  %72 = getelementptr inbounds nuw %struct.mbedtls_poly1305_context, ptr %71, i32 0, i32 2
  %73 = getelementptr inbounds [5 x i32], ptr %72, i64 0, i64 4
  %74 = load i32, ptr %73, align 8, !tbaa !10
  store i32 %74, ptr %17, align 4, !tbaa !10
  store i64 0, ptr %26, align 8, !tbaa !16
  br label %75

75:                                               ; preds = %288, %4
  %76 = load i64, ptr %26, align 8, !tbaa !16
  %77 = load i64, ptr %6, align 8, !tbaa !16
  %78 = icmp ult i64 %76, %77
  br i1 %78, label %79, label %291

79:                                               ; preds = %75
  %80 = load ptr, ptr %7, align 8, !tbaa !8
  %81 = load i64, ptr %25, align 8, !tbaa !16
  %82 = add i64 %81, 0
  %83 = getelementptr inbounds nuw i8, ptr %80, i64 %82
  %84 = call i32 @mbedtls_get_unaligned_uint32(ptr noundef %83)
  %85 = zext i32 %84 to i64
  store i64 %85, ptr %9, align 8, !tbaa !16
  %86 = load ptr, ptr %7, align 8, !tbaa !8
  %87 = load i64, ptr %25, align 8, !tbaa !16
  %88 = add i64 %87, 4
  %89 = getelementptr inbounds nuw i8, ptr %86, i64 %88
  %90 = call i32 @mbedtls_get_unaligned_uint32(ptr noundef %89)
  %91 = zext i32 %90 to i64
  store i64 %91, ptr %10, align 8, !tbaa !16
  %92 = load ptr, ptr %7, align 8, !tbaa !8
  %93 = load i64, ptr %25, align 8, !tbaa !16
  %94 = add i64 %93, 8
  %95 = getelementptr inbounds nuw i8, ptr %92, i64 %94
  %96 = call i32 @mbedtls_get_unaligned_uint32(ptr noundef %95)
  %97 = zext i32 %96 to i64
  store i64 %97, ptr %11, align 8, !tbaa !16
  %98 = load ptr, ptr %7, align 8, !tbaa !8
  %99 = load i64, ptr %25, align 8, !tbaa !16
  %100 = add i64 %99, 12
  %101 = getelementptr inbounds nuw i8, ptr %98, i64 %100
  %102 = call i32 @mbedtls_get_unaligned_uint32(ptr noundef %101)
  %103 = zext i32 %102 to i64
  store i64 %103, ptr %12, align 8, !tbaa !16
  %104 = load i32, ptr %13, align 4, !tbaa !10
  %105 = zext i32 %104 to i64
  %106 = load i64, ptr %9, align 8, !tbaa !16
  %107 = add i64 %106, %105
  store i64 %107, ptr %9, align 8, !tbaa !16
  %108 = load i32, ptr %14, align 4, !tbaa !10
  %109 = zext i32 %108 to i64
  %110 = load i64, ptr %9, align 8, !tbaa !16
  %111 = lshr i64 %110, 32
  %112 = add i64 %109, %111
  %113 = load i64, ptr %10, align 8, !tbaa !16
  %114 = add i64 %113, %112
  store i64 %114, ptr %10, align 8, !tbaa !16
  %115 = load i32, ptr %15, align 4, !tbaa !10
  %116 = zext i32 %115 to i64
  %117 = load i64, ptr %10, align 8, !tbaa !16
  %118 = lshr i64 %117, 32
  %119 = add i64 %116, %118
  %120 = load i64, ptr %11, align 8, !tbaa !16
  %121 = add i64 %120, %119
  store i64 %121, ptr %11, align 8, !tbaa !16
  %122 = load i32, ptr %16, align 4, !tbaa !10
  %123 = zext i32 %122 to i64
  %124 = load i64, ptr %11, align 8, !tbaa !16
  %125 = lshr i64 %124, 32
  %126 = add i64 %123, %125
  %127 = load i64, ptr %12, align 8, !tbaa !16
  %128 = add i64 %127, %126
  store i64 %128, ptr %12, align 8, !tbaa !16
  %129 = load i64, ptr %9, align 8, !tbaa !16
  %130 = trunc i64 %129 to i32
  store i32 %130, ptr %13, align 4, !tbaa !10
  %131 = load i64, ptr %10, align 8, !tbaa !16
  %132 = trunc i64 %131 to i32
  store i32 %132, ptr %14, align 4, !tbaa !10
  %133 = load i64, ptr %11, align 8, !tbaa !16
  %134 = trunc i64 %133 to i32
  store i32 %134, ptr %15, align 4, !tbaa !10
  %135 = load i64, ptr %12, align 8, !tbaa !16
  %136 = trunc i64 %135 to i32
  store i32 %136, ptr %16, align 4, !tbaa !10
  %137 = load i64, ptr %12, align 8, !tbaa !16
  %138 = lshr i64 %137, 32
  %139 = trunc i64 %138 to i32
  %140 = load i32, ptr %8, align 4, !tbaa !10
  %141 = add i32 %139, %140
  %142 = load i32, ptr %17, align 4, !tbaa !10
  %143 = add i32 %142, %141
  store i32 %143, ptr %17, align 4, !tbaa !10
  %144 = load i32, ptr %13, align 4, !tbaa !10
  %145 = load i32, ptr %18, align 4, !tbaa !10
  %146 = call i64 @mul64(i32 noundef %144, i32 noundef %145)
  %147 = load i32, ptr %14, align 4, !tbaa !10
  %148 = load i32, ptr %24, align 4, !tbaa !10
  %149 = call i64 @mul64(i32 noundef %147, i32 noundef %148)
  %150 = add i64 %146, %149
  %151 = load i32, ptr %15, align 4, !tbaa !10
  %152 = load i32, ptr %23, align 4, !tbaa !10
  %153 = call i64 @mul64(i32 noundef %151, i32 noundef %152)
  %154 = add i64 %150, %153
  %155 = load i32, ptr %16, align 4, !tbaa !10
  %156 = load i32, ptr %22, align 4, !tbaa !10
  %157 = call i64 @mul64(i32 noundef %155, i32 noundef %156)
  %158 = add i64 %154, %157
  store i64 %158, ptr %9, align 8, !tbaa !16
  %159 = load i32, ptr %13, align 4, !tbaa !10
  %160 = load i32, ptr %19, align 4, !tbaa !10
  %161 = call i64 @mul64(i32 noundef %159, i32 noundef %160)
  %162 = load i32, ptr %14, align 4, !tbaa !10
  %163 = load i32, ptr %18, align 4, !tbaa !10
  %164 = call i64 @mul64(i32 noundef %162, i32 noundef %163)
  %165 = add i64 %161, %164
  %166 = load i32, ptr %15, align 4, !tbaa !10
  %167 = load i32, ptr %24, align 4, !tbaa !10
  %168 = call i64 @mul64(i32 noundef %166, i32 noundef %167)
  %169 = add i64 %165, %168
  %170 = load i32, ptr %16, align 4, !tbaa !10
  %171 = load i32, ptr %23, align 4, !tbaa !10
  %172 = call i64 @mul64(i32 noundef %170, i32 noundef %171)
  %173 = add i64 %169, %172
  %174 = load i32, ptr %17, align 4, !tbaa !10
  %175 = load i32, ptr %22, align 4, !tbaa !10
  %176 = call i64 @mul64(i32 noundef %174, i32 noundef %175)
  %177 = add i64 %173, %176
  store i64 %177, ptr %10, align 8, !tbaa !16
  %178 = load i32, ptr %13, align 4, !tbaa !10
  %179 = load i32, ptr %20, align 4, !tbaa !10
  %180 = call i64 @mul64(i32 noundef %178, i32 noundef %179)
  %181 = load i32, ptr %14, align 4, !tbaa !10
  %182 = load i32, ptr %19, align 4, !tbaa !10
  %183 = call i64 @mul64(i32 noundef %181, i32 noundef %182)
  %184 = add i64 %180, %183
  %185 = load i32, ptr %15, align 4, !tbaa !10
  %186 = load i32, ptr %18, align 4, !tbaa !10
  %187 = call i64 @mul64(i32 noundef %185, i32 noundef %186)
  %188 = add i64 %184, %187
  %189 = load i32, ptr %16, align 4, !tbaa !10
  %190 = load i32, ptr %24, align 4, !tbaa !10
  %191 = call i64 @mul64(i32 noundef %189, i32 noundef %190)
  %192 = add i64 %188, %191
  %193 = load i32, ptr %17, align 4, !tbaa !10
  %194 = load i32, ptr %23, align 4, !tbaa !10
  %195 = call i64 @mul64(i32 noundef %193, i32 noundef %194)
  %196 = add i64 %192, %195
  store i64 %196, ptr %11, align 8, !tbaa !16
  %197 = load i32, ptr %13, align 4, !tbaa !10
  %198 = load i32, ptr %21, align 4, !tbaa !10
  %199 = call i64 @mul64(i32 noundef %197, i32 noundef %198)
  %200 = load i32, ptr %14, align 4, !tbaa !10
  %201 = load i32, ptr %20, align 4, !tbaa !10
  %202 = call i64 @mul64(i32 noundef %200, i32 noundef %201)
  %203 = add i64 %199, %202
  %204 = load i32, ptr %15, align 4, !tbaa !10
  %205 = load i32, ptr %19, align 4, !tbaa !10
  %206 = call i64 @mul64(i32 noundef %204, i32 noundef %205)
  %207 = add i64 %203, %206
  %208 = load i32, ptr %16, align 4, !tbaa !10
  %209 = load i32, ptr %18, align 4, !tbaa !10
  %210 = call i64 @mul64(i32 noundef %208, i32 noundef %209)
  %211 = add i64 %207, %210
  %212 = load i32, ptr %17, align 4, !tbaa !10
  %213 = load i32, ptr %24, align 4, !tbaa !10
  %214 = call i64 @mul64(i32 noundef %212, i32 noundef %213)
  %215 = add i64 %211, %214
  store i64 %215, ptr %12, align 8, !tbaa !16
  %216 = load i32, ptr %18, align 4, !tbaa !10
  %217 = load i32, ptr %17, align 4, !tbaa !10
  %218 = mul i32 %217, %216
  store i32 %218, ptr %17, align 4, !tbaa !10
  %219 = load i64, ptr %9, align 8, !tbaa !16
  %220 = lshr i64 %219, 32
  %221 = load i64, ptr %10, align 8, !tbaa !16
  %222 = add i64 %221, %220
  store i64 %222, ptr %10, align 8, !tbaa !16
  %223 = load i64, ptr %10, align 8, !tbaa !16
  %224 = lshr i64 %223, 32
  %225 = load i64, ptr %11, align 8, !tbaa !16
  %226 = add i64 %225, %224
  store i64 %226, ptr %11, align 8, !tbaa !16
  %227 = load i64, ptr %11, align 8, !tbaa !16
  %228 = lshr i64 %227, 32
  %229 = load i64, ptr %12, align 8, !tbaa !16
  %230 = add i64 %229, %228
  store i64 %230, ptr %12, align 8, !tbaa !16
  %231 = load i64, ptr %9, align 8, !tbaa !16
  %232 = trunc i64 %231 to i32
  store i32 %232, ptr %13, align 4, !tbaa !10
  %233 = load i64, ptr %10, align 8, !tbaa !16
  %234 = trunc i64 %233 to i32
  store i32 %234, ptr %14, align 4, !tbaa !10
  %235 = load i64, ptr %11, align 8, !tbaa !16
  %236 = trunc i64 %235 to i32
  store i32 %236, ptr %15, align 4, !tbaa !10
  %237 = load i64, ptr %12, align 8, !tbaa !16
  %238 = trunc i64 %237 to i32
  store i32 %238, ptr %16, align 4, !tbaa !10
  %239 = load i64, ptr %12, align 8, !tbaa !16
  %240 = lshr i64 %239, 32
  %241 = trunc i64 %240 to i32
  %242 = load i32, ptr %17, align 4, !tbaa !10
  %243 = add i32 %241, %242
  store i32 %243, ptr %17, align 4, !tbaa !10
  %244 = load i32, ptr %13, align 4, !tbaa !10
  %245 = zext i32 %244 to i64
  %246 = load i32, ptr %17, align 4, !tbaa !10
  %247 = lshr i32 %246, 2
  %248 = zext i32 %247 to i64
  %249 = add i64 %245, %248
  %250 = load i32, ptr %17, align 4, !tbaa !10
  %251 = and i32 %250, -4
  %252 = zext i32 %251 to i64
  %253 = add i64 %249, %252
  store i64 %253, ptr %9, align 8, !tbaa !16
  %254 = load i32, ptr %17, align 4, !tbaa !10
  %255 = and i32 %254, 3
  store i32 %255, ptr %17, align 4, !tbaa !10
  %256 = load i64, ptr %9, align 8, !tbaa !16
  %257 = trunc i64 %256 to i32
  store i32 %257, ptr %13, align 4, !tbaa !10
  %258 = load i32, ptr %14, align 4, !tbaa !10
  %259 = zext i32 %258 to i64
  %260 = load i64, ptr %9, align 8, !tbaa !16
  %261 = lshr i64 %260, 32
  %262 = add i64 %259, %261
  store i64 %262, ptr %9, align 8, !tbaa !16
  %263 = load i64, ptr %9, align 8, !tbaa !16
  %264 = trunc i64 %263 to i32
  store i32 %264, ptr %14, align 4, !tbaa !10
  %265 = load i32, ptr %15, align 4, !tbaa !10
  %266 = zext i32 %265 to i64
  %267 = load i64, ptr %9, align 8, !tbaa !16
  %268 = lshr i64 %267, 32
  %269 = add i64 %266, %268
  store i64 %269, ptr %9, align 8, !tbaa !16
  %270 = load i64, ptr %9, align 8, !tbaa !16
  %271 = trunc i64 %270 to i32
  store i32 %271, ptr %15, align 4, !tbaa !10
  %272 = load i32, ptr %16, align 4, !tbaa !10
  %273 = zext i32 %272 to i64
  %274 = load i64, ptr %9, align 8, !tbaa !16
  %275 = lshr i64 %274, 32
  %276 = add i64 %273, %275
  store i64 %276, ptr %9, align 8, !tbaa !16
  %277 = load i64, ptr %9, align 8, !tbaa !16
  %278 = trunc i64 %277 to i32
  store i32 %278, ptr %16, align 4, !tbaa !10
  %279 = load i32, ptr %17, align 4, !tbaa !10
  %280 = zext i32 %279 to i64
  %281 = load i64, ptr %9, align 8, !tbaa !16
  %282 = lshr i64 %281, 32
  %283 = add i64 %280, %282
  store i64 %283, ptr %9, align 8, !tbaa !16
  %284 = load i64, ptr %9, align 8, !tbaa !16
  %285 = trunc i64 %284 to i32
  store i32 %285, ptr %17, align 4, !tbaa !10
  %286 = load i64, ptr %25, align 8, !tbaa !16
  %287 = add i64 %286, 16
  store i64 %287, ptr %25, align 8, !tbaa !16
  br label %288

288:                                              ; preds = %79
  %289 = load i64, ptr %26, align 8, !tbaa !16
  %290 = add i64 %289, 1
  store i64 %290, ptr %26, align 8, !tbaa !16
  br label %75, !llvm.loop !17

291:                                              ; preds = %75
  %292 = load i32, ptr %13, align 4, !tbaa !10
  %293 = load ptr, ptr %5, align 8, !tbaa !3
  %294 = getelementptr inbounds nuw %struct.mbedtls_poly1305_context, ptr %293, i32 0, i32 2
  %295 = getelementptr inbounds [5 x i32], ptr %294, i64 0, i64 0
  store i32 %292, ptr %295, align 8, !tbaa !10
  %296 = load i32, ptr %14, align 4, !tbaa !10
  %297 = load ptr, ptr %5, align 8, !tbaa !3
  %298 = getelementptr inbounds nuw %struct.mbedtls_poly1305_context, ptr %297, i32 0, i32 2
  %299 = getelementptr inbounds [5 x i32], ptr %298, i64 0, i64 1
  store i32 %296, ptr %299, align 4, !tbaa !10
  %300 = load i32, ptr %15, align 4, !tbaa !10
  %301 = load ptr, ptr %5, align 8, !tbaa !3
  %302 = getelementptr inbounds nuw %struct.mbedtls_poly1305_context, ptr %301, i32 0, i32 2
  %303 = getelementptr inbounds [5 x i32], ptr %302, i64 0, i64 2
  store i32 %300, ptr %303, align 8, !tbaa !10
  %304 = load i32, ptr %16, align 4, !tbaa !10
  %305 = load ptr, ptr %5, align 8, !tbaa !3
  %306 = getelementptr inbounds nuw %struct.mbedtls_poly1305_context, ptr %305, i32 0, i32 2
  %307 = getelementptr inbounds [5 x i32], ptr %306, i64 0, i64 3
  store i32 %304, ptr %307, align 4, !tbaa !10
  %308 = load i32, ptr %17, align 4, !tbaa !10
  %309 = load ptr, ptr %5, align 8, !tbaa !3
  %310 = getelementptr inbounds nuw %struct.mbedtls_poly1305_context, ptr %309, i32 0, i32 2
  %311 = getelementptr inbounds [5 x i32], ptr %310, i64 0, i64 4
  store i32 %308, ptr %311, align 8, !tbaa !10
  call void @llvm.lifetime.end.p0(i64 8, ptr %26) #8
  call void @llvm.lifetime.end.p0(i64 8, ptr %25) #8
  call void @llvm.lifetime.end.p0(i64 4, ptr %24) #8
  call void @llvm.lifetime.end.p0(i64 4, ptr %23) #8
  call void @llvm.lifetime.end.p0(i64 4, ptr %22) #8
  call void @llvm.lifetime.end.p0(i64 4, ptr %21) #8
  call void @llvm.lifetime.end.p0(i64 4, ptr %20) #8
  call void @llvm.lifetime.end.p0(i64 4, ptr %19) #8
  call void @llvm.lifetime.end.p0(i64 4, ptr %18) #8
  call void @llvm.lifetime.end.p0(i64 4, ptr %17) #8
  call void @llvm.lifetime.end.p0(i64 4, ptr %16) #8
  call void @llvm.lifetime.end.p0(i64 4, ptr %15) #8
  call void @llvm.lifetime.end.p0(i64 4, ptr %14) #8
  call void @llvm.lifetime.end.p0(i64 4, ptr %13) #8
  call void @llvm.lifetime.end.p0(i64 8, ptr %12) #8
  call void @llvm.lifetime.end.p0(i64 8, ptr %11) #8
  call void @llvm.lifetime.end.p0(i64 8, ptr %10) #8
  call void @llvm.lifetime.end.p0(i64 8, ptr %9) #8
  ret void
}