; Function Attrs: nofree norecurse nosync nounwind memory(argmem: readwrite) uwtable
define internal fastcc void @poly1305_process(ptr noundef captures(none) %0, i64 noundef range(i64 1, 1152921504606846976) %1, ptr noundef readonly captures(none) %2, i32 noundef range(i32 0, 2) %3) unnamed_addr #2 {
  %5 = load i32, ptr %0, align 8, !tbaa !3
  %6 = getelementptr inbounds nuw i8, ptr %0, i64 4
  %7 = load i32, ptr %6, align 4, !tbaa !3
  %8 = getelementptr inbounds nuw i8, ptr %0, i64 8
  %9 = load i32, ptr %8, align 8, !tbaa !3
  %10 = getelementptr inbounds nuw i8, ptr %0, i64 12
  %11 = load i32, ptr %10, align 4, !tbaa !3
  %12 = lshr i32 %7, 2
  %13 = add i32 %12, %7
  %14 = lshr i32 %9, 2
  %15 = add i32 %14, %9
  %16 = lshr i32 %11, 2
  %17 = add i32 %16, %11
  %18 = getelementptr inbounds nuw i8, ptr %0, i64 32
  %19 = load i32, ptr %18, align 8, !tbaa !3
  %20 = getelementptr inbounds nuw i8, ptr %0, i64 36
  %21 = load i32, ptr %20, align 4, !tbaa !3
  %22 = getelementptr inbounds nuw i8, ptr %0, i64 40
  %23 = load i32, ptr %22, align 8, !tbaa !3
  %24 = getelementptr inbounds nuw i8, ptr %0, i64 44
  %25 = load i32, ptr %24, align 4, !tbaa !3
  %26 = getelementptr inbounds nuw i8, ptr %0, i64 48
  %27 = load i32, ptr %26, align 8, !tbaa !3
  %28 = zext i32 %5 to i64
  %29 = zext i32 %17 to i64
  %30 = zext i32 %15 to i64
  %31 = zext i32 %13 to i64
  %32 = zext i32 %7 to i64
  %33 = zext i32 %9 to i64
  %34 = zext i32 %11 to i64
  br label %35

35:                                               ; preds = %4, %35
  %.0138 = phi i64 [ 0, %4 ], [ %136, %35 ]
  %.0123137 = phi i64 [ 0, %4 ], [ %135, %35 ]
  %.0124136 = phi i32 [ %19, %4 ], [ %119, %35 ]
  %.0125135 = phi i32 [ %21, %4 ], [ %123, %35 ]
  %.0126134 = phi i32 [ %23, %4 ], [ %127, %35 ]
  %.0127133 = phi i32 [ %25, %4 ], [ %131, %35 ]
  %.0128132 = phi i32 [ %27, %4 ], [ %134, %35 ]
  %36 = getelementptr inbounds nuw i8, ptr %2, i64 %.0123137
  %.0.copyload.i131 = load i32, ptr %36, align 1
  %37 = or disjoint i64 %.0123137, 4
  %38 = getelementptr inbounds nuw i8, ptr %2, i64 %37
  %.0.copyload.i130 = load i32, ptr %38, align 1
  %39 = zext i32 %.0.copyload.i130 to i64
  %40 = or disjoint i64 %.0123137, 8
  %41 = getelementptr inbounds nuw i8, ptr %2, i64 %40
  %.0.copyload.i129 = load i32, ptr %41, align 1
  %42 = zext i32 %.0.copyload.i129 to i64
  %43 = or disjoint i64 %.0123137, 12
  %44 = getelementptr inbounds nuw i8, ptr %2, i64 %43
  %.0.copyload.i = load i32, ptr %44, align 1
  %45 = zext i32 %.0.copyload.i to i64
  %add.narrowed = add i32 %.0.copyload.i131, %.0124136
  %add.narrowed.overflow = icmp ult i32 %add.narrowed, %.0.copyload.i131
  %46 = zext i32 %.0125135 to i64
  %47 = zext i1 %add.narrowed.overflow to i64
  %48 = add nuw nsw i64 %39, %46
  %49 = add nuw nsw i64 %48, %47
  %50 = zext i32 %.0126134 to i64
  %51 = lshr i64 %49, 32
  %52 = add nuw nsw i64 %42, %50
  %53 = add nuw nsw i64 %52, %51
  %54 = zext i32 %.0127133 to i64
  %55 = lshr i64 %53, 32
  %56 = add nuw nsw i64 %45, %54
  %57 = add nuw nsw i64 %56, %55
  %58 = lshr i64 %57, 32
  %59 = trunc nuw nsw i64 %58 to i32
  %60 = add i32 %.0128132, %3
  %61 = add i32 %60, %59
  %62 = zext i32 %add.narrowed to i64
  %63 = mul nuw i64 %62, %28
  %64 = and i64 %49, 4294967295
  %65 = mul nuw i64 %64, %29
  %66 = add i64 %65, %63
  %67 = and i64 %53, 4294967295
  %68 = mul nuw i64 %67, %30
  %69 = add i64 %66, %68
  %70 = and i64 %57, 4294967295
  %71 = mul nuw i64 %70, %31
  %72 = add i64 %69, %71
  %73 = mul nuw i64 %62, %32
  %74 = mul nuw i64 %64, %28
  %75 = add i64 %74, %73
  %76 = mul nuw i64 %67, %29
  %77 = add i64 %75, %76
  %78 = mul nuw i64 %70, %30
  %79 = add i64 %77, %78
  %80 = zext i32 %61 to i64
  %81 = mul nuw i64 %80, %31
  %82 = mul nuw i64 %62, %33
  %83 = mul nuw i64 %64, %32
  %84 = add i64 %83, %82
  %85 = mul nuw i64 %67, %28
  %86 = add i64 %84, %85
  %87 = mul nuw i64 %70, %29
  %88 = add i64 %86, %87
  %89 = mul nuw i64 %80, %30
  %90 = add i64 %88, %89
  %91 = mul nuw i64 %62, %34
  %92 = mul nuw i64 %64, %33
  %93 = add i64 %92, %91
  %94 = mul nuw i64 %67, %32
  %95 = add i64 %93, %94
  %96 = mul nuw i64 %70, %28
  %97 = add i64 %95, %96
  %98 = mul nuw i64 %80, %29
  %99 = add i64 %97, %98
  %100 = mul i32 %61, %5
  %101 = lshr i64 %72, 32
  %102 = add i64 %79, %101
  %103 = add i64 %102, %81
  %104 = lshr i64 %103, 32
  %105 = add i64 %90, %104
  %106 = lshr i64 %105, 32
  %107 = add i64 %99, %106
  %108 = lshr i64 %107, 32
  %109 = trunc nuw i64 %108 to i32
  %110 = add i32 %100, %109
  %111 = and i64 %72, 4294967295
  %112 = lshr i32 %110, 2
  %113 = zext nneg i32 %112 to i64
  %114 = add nuw nsw i64 %111, %113
  %115 = and i32 %110, -4
  %116 = zext i32 %115 to i64
  %117 = add nuw nsw i64 %114, %116
  %118 = and i32 %110, 3
  %119 = trunc i64 %117 to i32
  %120 = and i64 %103, 4294967295
  %121 = lshr i64 %117, 32
  %122 = add nuw nsw i64 %121, %120
  %123 = trunc i64 %122 to i32
  %124 = and i64 %105, 4294967295
  %125 = lshr i64 %122, 32
  %126 = add nuw nsw i64 %125, %124
  %127 = trunc i64 %126 to i32
  %128 = and i64 %107, 4294967295
  %129 = lshr i64 %126, 32
  %130 = add nuw nsw i64 %129, %128
  %131 = trunc i64 %130 to i32
  %132 = lshr i64 %130, 32
  %133 = trunc nuw nsw i64 %132 to i32
  %134 = add nuw nsw i32 %118, %133
  %135 = add nuw i64 %.0123137, 16
  %136 = add nuw nsw i64 %.0138, 1
  %exitcond.not = icmp eq i64 %136, %1
  br i1 %exitcond.not, label %137, label %35, !llvm.loop !10

137:                                              ; preds = %35
  store i32 %119, ptr %18, align 8, !tbaa !3
  store i32 %123, ptr %20, align 4, !tbaa !3
  store i32 %127, ptr %22, align 8, !tbaa !3
  store i32 %131, ptr %24, align 4, !tbaa !3
  store i32 %134, ptr %26, align 8, !tbaa !3
  ret void
}